target datalayout = "e-m:e-p270:32:32-p271:32:32-p272:64:64-i64:64-i128:128-f80:128-n8:16:32:64-S128"
target triple = "x86_64-pc-linux-gnu"

%struct.dissect_info_t = type { ptr, ptr, i32 }
%struct._packet_info = type { ptr, ptr, i32, i32, %struct.nstime_t, %struct.nstime_t, %struct.nstime_t, i8, ptr, ptr, ptr, ptr, %struct._address, %struct._address, %struct._address, %struct._address, %struct._address, %struct._address, i32, ptr, i8, [3 x i8], %struct.anon, i32, i32, i32, i32, ptr, i8, ptr, ptr, i16, i16, i32, i32, i16, i32, i32, ptr, ptr, ptr, i8, i8, i16, i16, i16, i32, i16, i16, ptr, ptr, ptr, ptr, ptr, i32, i32 }
%struct.nstime_t = type { i64, i32 }
%struct._address = type { i32, i32, ptr, ptr }
%struct.anon = type { i8, [3 x i8] }
%struct._exp_pdu_data_t = type { i32, ptr, i32, i32, ptr }

@.str.23 = private unnamed_addr constant [20 x i8] c"logcat_text_process\00", align 1
@exported_pdu_tap = internal global i32 -1, align 4
@__const.dissect_logcat_text_process.dinfo = private unnamed_addr constant { ptr, ptr, i32, [4 x i8] } { ptr @process_regex, ptr @dissect_logcat_text_process.getters, i32 3, [4 x i8] zeroinitializer }, align 8
@.str.30 = private unnamed_addr constant [1 x i8] zeroinitializer, align 1

; Function Attrs: inlinehint nounwind null_pointer_is_valid sspstrong uwtable
define internal void @set_address(ptr noundef %0, i32 noundef %1, i32 noundef %2, ptr noundef %3) #5 {
  %5 = alloca ptr, align 8
  %6 = alloca i32, align 4
  %7 = alloca i32, align 4
  %8 = alloca ptr, align 8
  store ptr %0, ptr %5, align 8
  store i32 %1, ptr %6, align 4
  store i32 %2, ptr %7, align 4
  store ptr %3, ptr %8, align 8
  %9 = load i32, ptr %7, align 4
  %10 = icmp eq i32 %9, 0
  br i1 %10, label %11, label %14

11:                                               ; preds = %4
  br label %12

12:                                               ; preds = %11
  br label %13

13:                                               ; preds = %12
  br label %19

14:                                               ; preds = %4
  br label %15

15:                                               ; preds = %14
  br label %16

16:                                               ; preds = %15
  br label %17

17:                                               ; preds = %16
  br label %18

18:                                               ; preds = %17
  br label %19

19:                                               ; preds = %18, %13
  %20 = load i32, ptr %6, align 4
  %21 = load ptr, ptr %5, align 8
  %22 = getelementptr inbounds nuw %struct._address, ptr %21, i32 0, i32 0
  store i32 %20, ptr %22, align 8
  %23 = load i32, ptr %7, align 4
  %24 = load ptr, ptr %5, align 8
  %25 = getelementptr inbounds nuw %struct._address, ptr %24, i32 0, i32 1
  store i32 %23, ptr %25, align 4
  %26 = load ptr, ptr %8, align 8
  %27 = load ptr, ptr %5, align 8
  %28 = getelementptr inbounds nuw %struct._address, ptr %27, i32 0, i32 2
  store ptr %26, ptr %28, align 8
  %29 = load ptr, ptr %5, align 8
  %30 = getelementptr inbounds nuw %struct._address, ptr %29, i32 0, i32 3
  store ptr null, ptr %30, align 8
  ret void
}

; Function Attrs: null_pointer_is_valid sspstrong uwtable
define internal void @add_exported_pdu(ptr noundef %0, ptr noundef %1, ptr noundef %2) #0 {
  %4 = alloca ptr, align 8
  %5 = alloca ptr, align 8
  %6 = alloca ptr, align 8
  %7 = alloca ptr, align 8
  store ptr %0, ptr %4, align 8
  store ptr %1, ptr %5, align 8
  store ptr %2, ptr %6, align 8
  %8 = load i32, ptr @exported_pdu_tap, align 4
  %9 = call zeroext i1 @have_tap_listener(i32 noundef %8)
  br i1 %9, label %10, label %28

10:                                               ; preds = %3
  call void @llvm.lifetime.start.p0(i64 8, ptr %7) #7
  %11 = load ptr, ptr %5, align 8
  %12 = load ptr, ptr %6, align 8
  %13 = call ptr @export_pdu_create_tags(ptr noundef %11, ptr noundef %12, i16 noundef zeroext 12, ptr noundef null)
  store ptr %13, ptr %7, align 8
  %14 = load ptr, ptr %4, align 8
  %15 = call i32 @tvb_captured_length(ptr noundef %14)
  %16 = load ptr, ptr %7, align 8
  %17 = getelementptr inbounds nuw %struct._exp_pdu_data_t, ptr %16, i32 0, i32 2
  store i32 %15, ptr %17, align 8
  %18 = load ptr, ptr %4, align 8
  %19 = call i32 @tvb_reported_length(ptr noundef %18)
  %20 = load ptr, ptr %7, align 8
  %21 = getelementptr inbounds nuw %struct._exp_pdu_data_t, ptr %20, i32 0, i32 3
  store i32 %19, ptr %21, align 4
  %22 = load ptr, ptr %4, align 8
  %23 = load ptr, ptr %7, align 8
  %24 = getelementptr inbounds nuw %struct._exp_pdu_data_t, ptr %23, i32 0, i32 4
  store ptr %22, ptr %24, align 8
  %25 = load i32, ptr @exported_pdu_tap, align 4
  %26 = load ptr, ptr %5, align 8
  %27 = load ptr, ptr %7, align 8
  call void @tap_queue_packet(i32 noundef %25, ptr noundef %26, ptr noundef %27)
  call void @llvm.lifetime.end.p0(i64 8, ptr %7) #7
  br label %28

28:                                               ; preds = %10, %3
  ret void
}

; Function Attrs: null_pointer_is_valid sspstrong uwtable
define internal i32 @dissect_logcat_text_process(ptr noundef %0, ptr noundef %1, ptr noundef %2, ptr noundef %3) #0 {
  %5 = alloca ptr, align 8
  %6 = alloca ptr, align 8
  %7 = alloca ptr, align 8
  %8 = alloca ptr, align 8
  %9 = alloca %struct.dissect_info_t, align 8
  store ptr %0, ptr %5, align 8
  store ptr %1, ptr %6, align 8
  store ptr %2, ptr %7, align 8
  store ptr %3, ptr %8, align 8
  call void @llvm.lifetime.start.p0(i64 24, ptr %9) #7
  call void @llvm.memcpy.p0.p0.i64(ptr align 8 %9, ptr align 8 @__const.dissect_logcat_text_process.dinfo, i64 24, i1 false)
  %10 = load ptr, ptr %5, align 8
  %11 = load ptr, ptr %6, align 8
  call void @add_exported_pdu(ptr noundef %10, ptr noundef %11, ptr noundef @.str.23)
  %12 = load ptr, ptr %6, align 8
  %13 = getelementptr inbounds nuw %struct._packet_info, ptr %12, i32 0, i32 17
  call void @set_address(ptr noundef %13, i32 noundef 7, i32 noundef 1, ptr noundef @.str.30)
  %14 = load ptr, ptr %6, align 8
  %15 = getelementptr inbounds nuw %struct._packet_info, ptr %14, i32 0, i32 16
  call void @set_address(ptr noundef %15, i32 noundef 7, i32 noundef 1, ptr noundef @.str.30)
  %16 = load ptr, ptr %5, align 8
  %17 = load ptr, ptr %7, align 8
  %18 = load ptr, ptr %6, align 8
  %19 = call i32 @dissect_logcat_text(ptr noundef %16, ptr noundef %17, ptr noundef %18, ptr noundef %9)
  call void @llvm.lifetime.end.p0(i64 24, ptr %9) #7
  ret i32 %19
}